target datalayout = "e-m:e-p270:32:32-p271:32:32-p272:64:64-i64:64-i128:128-f80:128-n8:16:32:64-S128"
target triple = "x86_64-pc-linux-gnu"

%class.rational = type { %class.mpq }
%class.mpq = type { %class.mpz, %class.mpz }
%class.mpz = type { i32, i8, ptr }
%"class.smt::theory_str" = type { %"class.smt::theory.base", ptr, i8, i8, i32, i8, i8, i8, i8, i8, i8, %class.arith_util, %class.seq_util, i32, i8, %class.ref_vector, ptr, %class.re2automaton, i32, ptr, %class.ref_vector, %class.ptr_vector, %class.ptr_vector, %class.ptr_vector, %class.ptr_vector, %class.ref_vector, %class.ptr_vector, %class.ref_vector, %class.ref_vector, %class.obj_hashtable, %class.obj_hashtable, i32, i32, %"class.std::map", i8, i8, [6 x i8], %class.obj_map, %class.scoped_ptr_vector, %class.obj_ref, %class.obj_hashtable, %class.obj_hashtable, %"class.std::map.10", %class.ref_vector, %"class.smt::theory_str_contain_pair_bool_map_t", %class.obj_map.20, %class.scoped_ptr_vector.25, %class.ptr_vector.26, %class.obj_hashtable, %class.obj_map.28, %class.obj_map.33, %class.obj_hashtable, %class.obj_hashtable, %class.obj_map.38, %class.obj_map.28, %class.obj_map.43, %class.obj_map.43, %class.obj_map.48, %class.obj_map.48, %class.obj_map.48, %class.obj_map.28, %class.obj_pair_map, %class.ref_vector, %class.obj_hashtable, %class.map, i64, i64, i64, i32, [4 x i8], %class.obj_map.56, %class.trail_stack, %class.trail_stack, %class.union_find, %class.ref_vector, %class.ref_vector, %class.obj_map.43, %class.obj_map.63, %class.obj_map.63, %class.obj_map.68, i32, [4 x i8], %class.obj_map.73, %"struct.smt::theory_str::stats", %class.rational, %class.rational, %class.rational }
%"class.smt::theory.base" = type <{ ptr, i32, [4 x i8], ptr, ptr, %class.ptr_vector, %class.svector, i32, i8 }>
%class.svector = type { %class.vector.0 }
%class.vector.0 = type { ptr }
%class.arith_util = type { ptr, ptr }
%class.seq_util = type { ptr, ptr, ptr, i32, [4 x i8], %"class.seq_util::str", %"class.seq_util::rex" }
%"class.seq_util::str" = type <{ ptr, ptr, i32, [4 x i8] }>
%"class.seq_util::rex" = type { ptr, ptr, i32, %class.vector.1, %class.ref_vector, %"struct.seq_util::rex::info", %"struct.seq_util::rex::info" }
%class.vector.1 = type { ptr }
%"struct.seq_util::rex::info" = type { i32, i8, i32, i32 }
%class.re2automaton = type { ptr, [8 x i8], %class.seq_util, %class.scoped_ptr, %class.scoped_ptr.4, %class.scoped_ptr.5 }
%class.scoped_ptr = type { ptr }
%class.scoped_ptr.4 = type { ptr }
%class.scoped_ptr.5 = type { ptr }
%class.ptr_vector = type { %class.vector }
%class.vector = type { ptr }
%"class.std::map" = type { %"class.std::_Rb_tree" }
%"class.std::_Rb_tree" = type { %"struct.std::_Rb_tree<std::pair<expr *, expr *>, std::pair<const std::pair<expr *, expr *>, std::map<int, expr *>>, std::_Select1st<std::pair<const std::pair<expr *, expr *>, std::map<int, expr *>>>, std::less<std::pair<expr *, expr *>>>::_Rb_tree_impl" }
%"struct.std::_Rb_tree<std::pair<expr *, expr *>, std::pair<const std::pair<expr *, expr *>, std::map<int, expr *>>, std::_Select1st<std::pair<const std::pair<expr *, expr *>, std::map<int, expr *>>>, std::less<std::pair<expr *, expr *>>>::_Rb_tree_impl" = type { [8 x i8], %"struct.std::_Rb_tree_header" }
%"struct.std::_Rb_tree_header" = type { %"struct.std::_Rb_tree_node_base", i64 }
%"struct.std::_Rb_tree_node_base" = type { i32, ptr, ptr, ptr }
%class.obj_map = type { %class.core_hashtable.6 }
%class.core_hashtable.6 = type <{ ptr, i32, i32, i32, [4 x i8] }>
%class.scoped_ptr_vector = type { %class.ptr_vector.8 }
%class.ptr_vector.8 = type { %class.vector.9 }
%class.vector.9 = type { ptr }
%class.obj_ref = type { ptr, ptr }
%"class.std::map.10" = type { %"class.std::_Rb_tree.11" }
%"class.std::_Rb_tree.11" = type { %"struct.std::_Rb_tree<int, std::pair<const int, obj_hashtable<expr>>, std::_Select1st<std::pair<const int, obj_hashtable<expr>>>, std::less<int>>::_Rb_tree_impl" }
%"struct.std::_Rb_tree<int, std::pair<const int, obj_hashtable<expr>>, std::_Select1st<std::pair<const int, obj_hashtable<expr>>>, std::less<int>>::_Rb_tree_impl" = type { [8 x i8], %"struct.std::_Rb_tree_header" }
%"class.smt::theory_str_contain_pair_bool_map_t" = type { %class.obj_pair_map }
%class.obj_map.20 = type { %class.core_hashtable.21 }
%class.core_hashtable.21 = type <{ ptr, i32, i32, i32, [4 x i8] }>
%class.scoped_ptr_vector.25 = type { %class.ptr_vector.26 }
%class.ptr_vector.26 = type { %class.vector.27 }
%class.vector.27 = type { ptr }
%class.obj_map.33 = type { %class.core_hashtable.34 }
%class.core_hashtable.34 = type <{ ptr, i32, i32, i32, [4 x i8] }>
%class.obj_map.38 = type { %class.core_hashtable.39 }
%class.core_hashtable.39 = type <{ ptr, i32, i32, i32, [4 x i8] }>
%class.obj_map.48 = type { %class.core_hashtable.49 }
%class.core_hashtable.49 = type <{ ptr, i32, i32, i32, [4 x i8] }>
%class.obj_map.28 = type { %class.core_hashtable.29 }
%class.core_hashtable.29 = type <{ ptr, i32, i32, i32, [4 x i8] }>
%class.obj_pair_map = type { %class.core_hashtable.16 }
%class.core_hashtable.16 = type <{ ptr, i32, i32, i32, [4 x i8] }>
%class.obj_hashtable = type { %class.core_hashtable.base, [4 x i8] }
%class.core_hashtable.base = type <{ ptr, i32, i32, i32 }>
%class.map = type { %class.table2map }
%class.table2map = type { %class.core_hashtable.53 }
%class.core_hashtable.53 = type <{ ptr, i32, i32, i32, [4 x i8] }>
%class.obj_map.56 = type { %class.core_hashtable.57 }
%class.core_hashtable.57 = type <{ ptr, i32, i32, i32, [4 x i8] }>
%class.trail_stack = type { %class.ptr_vector.61, %class.svector, %class.region }
%class.ptr_vector.61 = type { %class.vector.62 }
%class.vector.62 = type { ptr }
%class.region = type { ptr, ptr, ptr, ptr, ptr }
%class.union_find = type { ptr, ptr, %class.svector, %class.svector, %class.svector, %"class.union_find<smt::theory_str>::mk_var_trail" }
%"class.union_find<smt::theory_str>::mk_var_trail" = type { %class.trail, ptr }
%class.trail = type { ptr }
%class.ref_vector = type { %class.ref_vector_core }
%class.ref_vector_core = type { %class.ref_manager_wrapper, %class.ptr_vector.2 }
%class.ref_manager_wrapper = type { ptr }
%class.ptr_vector.2 = type { %class.vector.3 }
%class.vector.3 = type { ptr }
%class.obj_map.43 = type { %class.core_hashtable.44 }
%class.core_hashtable.44 = type <{ ptr, i32, i32, i32, [4 x i8] }>
%class.obj_map.63 = type { %class.core_hashtable.64 }
%class.core_hashtable.64 = type <{ ptr, i32, i32, i32, [4 x i8] }>
%class.obj_map.68 = type { %class.core_hashtable.69 }
%class.core_hashtable.69 = type <{ ptr, i32, i32, i32, [4 x i8] }>
%class.obj_map.73 = type { %class.core_hashtable.74 }
%class.core_hashtable.74 = type <{ ptr, i32, i32, i32, [4 x i8] }>
%"struct.smt::theory_str::stats" = type { i32, i32, i32, i32, i32, i32 }
%"class.smt::theory" = type <{ ptr, i32, [4 x i8], ptr, ptr, %class.ptr_vector, %class.svector, i32, i8, [3 x i8] }>
%class.bv_util = type { %class.bv_recognizers, ptr, ptr }
%class.bv_recognizers = type { i32 }
%"class.smt::arith_value" = type { ptr, ptr, %class.arith_util, %class.bv_util, ptr, ptr, ptr, ptr }

; Function Attrs: mustprogress nounwind uwtable
define linkonce_odr hidden noundef nonnull align 8 dereferenceable(976) ptr @_ZNK3smt6theory11get_managerEv(ptr noundef nonnull align 8 dereferenceable(53) %0) #4 comdat align 2 {
  %2 = alloca ptr, align 8
  store ptr %0, ptr %2, align 8, !tbaa !320
  %3 = load ptr, ptr %2, align 8
  %4 = getelementptr inbounds nuw %"class.smt::theory", ptr %3, i32 0, i32 4
  %5 = load ptr, ptr %4, align 8, !tbaa !335
  ret ptr %5
}

; Function Attrs: mustprogress uwtable
define hidden noundef zeroext i1 @_ZN3smt10theory_str11lower_boundEP4exprR8rational(ptr noundef nonnull align 8 dereferenceable(1800) %0, ptr noundef %1, ptr noundef nonnull align 8 dereferenceable(32) %2) #6 align 2 {
  %4 = alloca i1, align 1
  %5 = alloca ptr, align 8
  %6 = alloca ptr, align 8
  %7 = alloca ptr, align 8
  %8 = alloca %"class.smt::arith_value", align 8
  %9 = alloca i8, align 1
  store ptr %0, ptr %5, align 8, !tbaa !28
  store ptr %1, ptr %6, align 8, !tbaa !262
  store ptr %2, ptr %7, align 8, !tbaa !304
  %10 = load ptr, ptr %5, align 8
  %11 = getelementptr inbounds nuw %"class.smt::theory_str", ptr %10, i32 0, i32 6
  %12 = load i8, ptr %11, align 1, !tbaa !164, !range !12, !noundef !13
  %13 = trunc i8 %12 to i1
  br i1 %13, label %14, label %15

14:                                               ; preds = %3
  store i1 false, ptr %4, align 1
  br label %22

15:                                               ; preds = %3
  call void @llvm.lifetime.start.p0(i64 88, ptr %8) #3
  %16 = call noundef nonnull align 8 dereferenceable(976) ptr @_ZNK3smt6theory11get_managerEv(ptr noundef nonnull align 8 dereferenceable(53) %10)
  call void @_ZN3smt11arith_valueC1ER11ast_manager(ptr noundef nonnull align 8 dereferenceable(88) %8, ptr noundef nonnull align 8 dereferenceable(976) %16)
  %17 = getelementptr inbounds nuw %"class.smt::theory", ptr %10, i32 0, i32 3
  %18 = load ptr, ptr %17, align 8, !tbaa !334
  call void @_ZN3smt11arith_value4initEPNS_7contextE(ptr noundef nonnull align 8 dereferenceable(88) %8, ptr noundef %18)
  call void @llvm.lifetime.start.p0(i64 1, ptr %9) #3
  %19 = load ptr, ptr %6, align 8, !tbaa !262
  %20 = load ptr, ptr %7, align 8, !tbaa !304
  %21 = call noundef zeroext i1 @_ZN3smt11arith_value12get_lo_equivEP4exprR8rationalRb(ptr noundef nonnull align 8 dereferenceable(88) %8, ptr noundef %19, ptr noundef nonnull align 8 dereferenceable(32) %20, ptr noundef nonnull align 1 dereferenceable(1) %9)
  store i1 %21, ptr %4, align 1
  call void @llvm.lifetime.end.p0(i64 1, ptr %9) #3
  call void @llvm.lifetime.end.p0(i64 88, ptr %8) #3
  br label %22

22:                                               ; preds = %15, %14
  %23 = load i1, ptr %4, align 1
  ret i1 %23
}