; Function Attrs: mustprogress uwtable
define hidden noundef zeroext i1 @_ZN3smt10theory_str11lower_boundEP4exprR8rational(ptr noundef nonnull readonly align 8 captures(none) dereferenceable(1800) %0, ptr noundef %1, ptr noundef nonnull align 8 dereferenceable(32) %2) local_unnamed_addr #4 align 2 {
  %4 = alloca %"class.smt::arith_value", align 8
  %5 = alloca i8, align 1
  %6 = getelementptr inbounds nuw i8, ptr %0, i64 73
  %7 = load i8, ptr %6, align 1, !tbaa !141, !range !829, !noundef !830
  %8 = trunc nuw i8 %7 to i1
  br i1 %8, label %15, label %9

9:                                                ; preds = %3
  call void @llvm.lifetime.start.p0(i64 88, ptr nonnull %4) #25
  %10 = getelementptr inbounds nuw i8, ptr %0, i64 24
  %11 = load ptr, ptr %10, align 8, !tbaa !385
  call void @_ZN3smt11arith_valueC1ER11ast_manager(ptr noundef nonnull align 8 dereferenceable(88) %4, ptr noundef nonnull align 8 dereferenceable(976) %11)
  %12 = getelementptr inbounds nuw i8, ptr %0, i64 16
  %13 = load ptr, ptr %12, align 8, !tbaa !386
  call void @_ZN3smt11arith_value4initEPNS_7contextE(ptr noundef nonnull align 8 dereferenceable(88) %4, ptr noundef %13)
  call void @llvm.lifetime.start.p0(i64 1, ptr nonnull %5) #25
  %14 = call noundef zeroext i1 @_ZN3smt11arith_value12get_lo_equivEP4exprR8rationalRb(ptr noundef nonnull align 8 dereferenceable(88) %4, ptr noundef %1, ptr noundef nonnull align 8 dereferenceable(32) %2, ptr noundef nonnull align 1 dereferenceable(1) %5)
  call void @llvm.lifetime.end.p0(i64 1, ptr nonnull %5) #25
  call void @llvm.lifetime.end.p0(i64 88, ptr nonnull %4) #25
  br label %15

15:                                               ; preds = %3, %9
  %.0 = phi i1 [ %14, %9 ], [ false, %3 ]
  ret i1 %.0
}